target datalayout = "e-m:e-p270:32:32-p271:32:32-p272:64:64-i64:64-i128:128-f80:128-n8:16:32:64-S128"
target triple = "x86_64-pc-linux-gnu"

; Function Attrs: inlinehint mustprogress nounwind uwtable
define linkonce_odr noundef double @_ZSt3powIfiEN9__gnu_cxx9__promoteIDTplcvNS1_IT_Xsr3std12__is_integerIS2_EE7__valueEE6__typeELi0EcvNS1_IT0_Xsr3std12__is_integerIS5_EE7__valueEE6__typeELi0EEXsr3std12__is_integerIS8_EE7__valueEE6__typeES2_S5_(float noundef %0, i32 noundef %1) #8 comdat {
  %3 = alloca float, align 4
  %4 = alloca i32, align 4
  store float %0, ptr %3, align 4, !tbaa !228
  store i32 %1, ptr %4, align 4, !tbaa !3
  %5 = load float, ptr %3, align 4, !tbaa !228
  %6 = fpext float %5 to double
  %7 = load i32, ptr %4, align 4, !tbaa !3
  %8 = sitofp i32 %7 to double
  %9 = call double @pow(double noundef %6, double noundef %8) #3, !tbaa !3
  ret double %9
}

; Function Attrs: inlinehint mustprogress nounwind uwtable
define linkonce_odr noundef float @_ZSt3absf(float noundef %0) #8 comdat {
  %2 = alloca float, align 4
  store float %0, ptr %2, align 4, !tbaa !228
  %3 = load float, ptr %2, align 4, !tbaa !228
  %4 = call float @llvm.fabs.f32(float %3)
  ret float %4
}

; Function Attrs: mustprogress uwtable
define void @_Z21common_embd_normalizePKfPfii(ptr noundef %0, ptr noundef %1, i32 noundef %2, i32 noundef %3) #4 {
  %5 = alloca ptr, align 8
  %6 = alloca ptr, align 8
  %7 = alloca i32, align 4
  %8 = alloca i32, align 4
  %9 = alloca double, align 8
  %10 = alloca i32, align 4
  %11 = alloca i32, align 4
  %12 = alloca i32, align 4
  %13 = alloca float, align 4
  %14 = alloca i32, align 4
  store ptr %0, ptr %5, align 8, !tbaa !222
  store ptr %1, ptr %6, align 8, !tbaa !222
  store i32 %2, ptr %7, align 4, !tbaa !3
  store i32 %3, ptr %8, align 4, !tbaa !3
  call void @llvm.lifetime.start.p0(i64 8, ptr %9) #3
  store double 0.000000e+00, ptr %9, align 8, !tbaa !427
  %15 = load i32, ptr %8, align 4, !tbaa !3
  switch i32 %15, label %75 [
    i32 -1, label %16
    i32 0, label %17
    i32 2, label %48
  ]

16:                                               ; preds = %4
  store double 1.000000e+00, ptr %9, align 8, !tbaa !427
  br label %101

17:                                               ; preds = %4
  call void @llvm.lifetime.start.p0(i64 4, ptr %10) #3
  store i32 0, ptr %10, align 4, !tbaa !3
  br label %18

18:                                               ; preds = %42, %17
  %19 = load i32, ptr %10, align 4, !tbaa !3
  %20 = load i32, ptr %7, align 4, !tbaa !3
  %21 = icmp slt i32 %19, %20
  br i1 %21, label %23, label %22

22:                                               ; preds = %18
  call void @llvm.lifetime.end.p0(i64 4, ptr %10) #3
  br label %45

23:                                               ; preds = %18
  %24 = load double, ptr %9, align 8, !tbaa !427
  %25 = load ptr, ptr %5, align 8, !tbaa !222
  %26 = load i32, ptr %10, align 4, !tbaa !3
  %27 = sext i32 %26 to i64
  %28 = getelementptr inbounds float, ptr %25, i64 %27
  %29 = load float, ptr %28, align 4, !tbaa !228
  %30 = call noundef float @_ZSt3absf(float noundef %29)
  %31 = fpext float %30 to double
  %32 = fcmp olt double %24, %31
  br i1 %32, label %33, label %41

33:                                               ; preds = %23
  %34 = load ptr, ptr %5, align 8, !tbaa !222
  %35 = load i32, ptr %10, align 4, !tbaa !3
  %36 = sext i32 %35 to i64
  %37 = getelementptr inbounds float, ptr %34, i64 %36
  %38 = load float, ptr %37, align 4, !tbaa !228
  %39 = call noundef float @_ZSt3absf(float noundef %38)
  %40 = fpext float %39 to double
  store double %40, ptr %9, align 8, !tbaa !427
  br label %41

41:                                               ; preds = %33, %23
  br label %42

42:                                               ; preds = %41
  %43 = load i32, ptr %10, align 4, !tbaa !3
  %44 = add nsw i32 %43, 1
  store i32 %44, ptr %10, align 4, !tbaa !3
  br label %18, !llvm.loop !429

45:                                               ; preds = %22
  %46 = load double, ptr %9, align 8, !tbaa !427
  %47 = fdiv double %46, 3.276000e+04
  store double %47, ptr %9, align 8, !tbaa !427
  br label %101

48:                                               ; preds = %4
  call void @llvm.lifetime.start.p0(i64 4, ptr %11) #3
  store i32 0, ptr %11, align 4, !tbaa !3
  br label %49

49:                                               ; preds = %69, %48
  %50 = load i32, ptr %11, align 4, !tbaa !3
  %51 = load i32, ptr %7, align 4, !tbaa !3
  %52 = icmp slt i32 %50, %51
  br i1 %52, label %54, label %53

53:                                               ; preds = %49
  call void @llvm.lifetime.end.p0(i64 4, ptr %11) #3
  br label %72

54:                                               ; preds = %49
  %55 = load ptr, ptr %5, align 8, !tbaa !222
  %56 = load i32, ptr %11, align 4, !tbaa !3
  %57 = sext i32 %56 to i64
  %58 = getelementptr inbounds float, ptr %55, i64 %57
  %59 = load float, ptr %58, align 4, !tbaa !228
  %60 = load ptr, ptr %5, align 8, !tbaa !222
  %61 = load i32, ptr %11, align 4, !tbaa !3
  %62 = sext i32 %61 to i64
  %63 = getelementptr inbounds float, ptr %60, i64 %62
  %64 = load float, ptr %63, align 4, !tbaa !228
  %65 = fmul float %59, %64
  %66 = fpext float %65 to double
  %67 = load double, ptr %9, align 8, !tbaa !427
  %68 = fadd double %67, %66
  store double %68, ptr %9, align 8, !tbaa !427
  br label %69

69:                                               ; preds = %54
  %70 = load i32, ptr %11, align 4, !tbaa !3
  %71 = add nsw i32 %70, 1
  store i32 %71, ptr %11, align 4, !tbaa !3
  br label %49, !llvm.loop !430

72:                                               ; preds = %53
  %73 = load double, ptr %9, align 8, !tbaa !427
  %74 = call double @sqrt(double noundef %73) #3, !tbaa !3
  store double %74, ptr %9, align 8, !tbaa !427
  br label %101

75:                                               ; preds = %4
  call void @llvm.lifetime.start.p0(i64 4, ptr %12) #3
  store i32 0, ptr %12, align 4, !tbaa !3
  br label %76

76:                                               ; preds = %92, %75
  %77 = load i32, ptr %12, align 4, !tbaa !3
  %78 = load i32, ptr %7, align 4, !tbaa !3
  %79 = icmp slt i32 %77, %78
  br i1 %79, label %81, label %80

80:                                               ; preds = %76
  call void @llvm.lifetime.end.p0(i64 4, ptr %12) #3
  br label %95

81:                                               ; preds = %76
  %82 = load ptr, ptr %5, align 8, !tbaa !222
  %83 = load i32, ptr %12, align 4, !tbaa !3
  %84 = sext i32 %83 to i64
  %85 = getelementptr inbounds float, ptr %82, i64 %84
  %86 = load float, ptr %85, align 4, !tbaa !228
  %87 = call noundef float @_ZSt3absf(float noundef %86)
  %88 = load i32, ptr %8, align 4, !tbaa !3
  %89 = call noundef double @_ZSt3powIfiEN9__gnu_cxx9__promoteIDTplcvNS1_IT_Xsr3std12__is_integerIS2_EE7__valueEE6__typeELi0EcvNS1_IT0_Xsr3std12__is_integerIS5_EE7__valueEE6__typeELi0EEXsr3std12__is_integerIS8_EE7__valueEE6__typeES2_S5_(float noundef %87, i32 noundef %88)
  %90 = load double, ptr %9, align 8, !tbaa !427
  %91 = fadd double %90, %89
  store double %91, ptr %9, align 8, !tbaa !427
  br label %92

92:                                               ; preds = %81
  %93 = load i32, ptr %12, align 4, !tbaa !3
  %94 = add nsw i32 %93, 1
  store i32 %94, ptr %12, align 4, !tbaa !3
  br label %76, !llvm.loop !431

95:                                               ; preds = %80
  %96 = load double, ptr %9, align 8, !tbaa !427
  %97 = load i32, ptr %8, align 4, !tbaa !3
  %98 = sitofp i32 %97 to double
  %99 = fdiv double 1.000000e+00, %98
  %100 = call double @pow(double noundef %96, double noundef %99) #3, !tbaa !3
  store double %100, ptr %9, align 8, !tbaa !427
  br label %101

101:                                              ; preds = %95, %72, %45, %16
  call void @llvm.lifetime.start.p0(i64 4, ptr %13) #3
  %102 = load double, ptr %9, align 8, !tbaa !427
  %103 = fcmp ogt double %102, 0.000000e+00
  br i1 %103, label %104, label %107

104:                                              ; preds = %101
  %105 = load double, ptr %9, align 8, !tbaa !427
  %106 = fdiv double 1.000000e+00, %105
  br label %108

107:                                              ; preds = %101
  br label %108

108:                                              ; preds = %107, %104
  %109 = phi double [ %106, %104 ], [ 0.000000e+00, %107 ]
  %110 = fptrunc double %109 to float
  store float %110, ptr %13, align 4, !tbaa !228
  call void @llvm.lifetime.start.p0(i64 4, ptr %14) #3
  store i32 0, ptr %14, align 4, !tbaa !3
  br label %111

111:                                              ; preds = %128, %108
  %112 = load i32, ptr %14, align 4, !tbaa !3
  %113 = load i32, ptr %7, align 4, !tbaa !3
  %114 = icmp slt i32 %112, %113
  br i1 %114, label %116, label %115

115:                                              ; preds = %111
  call void @llvm.lifetime.end.p0(i64 4, ptr %14) #3
  br label %131

116:                                              ; preds = %111
  %117 = load ptr, ptr %5, align 8, !tbaa !222
  %118 = load i32, ptr %14, align 4, !tbaa !3
  %119 = sext i32 %118 to i64
  %120 = getelementptr inbounds float, ptr %117, i64 %119
  %121 = load float, ptr %120, align 4, !tbaa !228
  %122 = load float, ptr %13, align 4, !tbaa !228
  %123 = fmul float %121, %122
  %124 = load ptr, ptr %6, align 8, !tbaa !222
  %125 = load i32, ptr %14, align 4, !tbaa !3
  %126 = sext i32 %125 to i64
  %127 = getelementptr inbounds float, ptr %124, i64 %126
  store float %123, ptr %127, align 4, !tbaa !228
  br label %128

128:                                              ; preds = %116
  %129 = load i32, ptr %14, align 4, !tbaa !3
  %130 = add nsw i32 %129, 1
  store i32 %130, ptr %14, align 4, !tbaa !3
  br label %111, !llvm.loop !432

131:                                              ; preds = %115
  call void @llvm.lifetime.end.p0(i64 4, ptr %13) #3
  call void @llvm.lifetime.end.p0(i64 8, ptr %9) #3
  ret void
}