; Function Attrs: mustprogress nofree nounwind memory(write, argmem: readwrite) uwtable
define void @_Z21common_embd_normalizePKfPfii(ptr noundef readonly captures(none) %0, ptr noundef writeonly captures(none) %1, i32 noundef %2, i32 noundef %3) local_unnamed_addr #24 {
  switch i32 %3, label %.preheader [
    i32 -1, label %30
    i32 0, label %.preheader41
    i32 2, label %.preheader42
  ]

.preheader42:                                     ; preds = %4
  %5 = icmp sgt i32 %2, 0
  br i1 %5, label %.lr.ph.preheader, label %._crit_edge

.lr.ph.preheader:                                 ; preds = %.preheader42
  %wide.trip.count = zext nneg i32 %2 to i64
  br label %.lr.ph

.preheader41:                                     ; preds = %4
  %6 = icmp sgt i32 %2, 0
  br i1 %6, label %.lr.ph47.preheader, label %._crit_edge48

.lr.ph47.preheader:                               ; preds = %.preheader41
  %wide.trip.count64 = zext nneg i32 %2 to i64
  br label %.lr.ph47

.preheader:                                       ; preds = %4
  %7 = icmp sgt i32 %2, 0
  %8 = sitofp i32 %3 to double
  br i1 %7, label %.lr.ph52, label %._crit_edge53

.lr.ph52:                                         ; preds = %.preheader
  %wide.trip.count69 = zext nneg i32 %2 to i64
  br label %23

._crit_edge48:                                    ; preds = %.lr.ph47, %.preheader41
  %.1.lcssa = phi double [ 0.000000e+00, %.preheader41 ], [ %.2, %.lr.ph47 ]
  %9 = fdiv double %.1.lcssa, 3.276000e+04
  br label %30

.lr.ph47:                                         ; preds = %.lr.ph47.preheader, %.lr.ph47
  %indvars.iv61 = phi i64 [ 0, %.lr.ph47.preheader ], [ %indvars.iv.next62, %.lr.ph47 ]
  %.146 = phi double [ 0.000000e+00, %.lr.ph47.preheader ], [ %.2, %.lr.ph47 ]
  %10 = getelementptr inbounds nuw float, ptr %0, i64 %indvars.iv61
  %11 = load float, ptr %10, align 4, !tbaa !446
  %12 = tail call noundef float @llvm.fabs.f32(float %11)
  %13 = fpext float %12 to double
  %14 = fcmp olt double %.146, %13
  %.2 = select i1 %14, double %13, double %.146
  %indvars.iv.next62 = add nuw nsw i64 %indvars.iv61, 1
  %exitcond65.not = icmp eq i64 %indvars.iv.next62, %wide.trip.count64
  br i1 %exitcond65.not, label %._crit_edge48, label %.lr.ph47, !llvm.loop !499

._crit_edge:                                      ; preds = %.lr.ph, %.preheader42
  %.3.lcssa = phi double [ 0.000000e+00, %.preheader42 ], [ %20, %.lr.ph ]
  %15 = tail call double @sqrt(double noundef %.3.lcssa) #37, !tbaa !72
  br label %30

.lr.ph:                                           ; preds = %.lr.ph.preheader, %.lr.ph
  %indvars.iv = phi i64 [ 0, %.lr.ph.preheader ], [ %indvars.iv.next, %.lr.ph ]
  %.344 = phi double [ 0.000000e+00, %.lr.ph.preheader ], [ %20, %.lr.ph ]
  %16 = getelementptr inbounds nuw float, ptr %0, i64 %indvars.iv
  %17 = load float, ptr %16, align 4, !tbaa !446
  %18 = fmul float %17, %17
  %19 = fpext float %18 to double
  %20 = fadd double %.344, %19
  %indvars.iv.next = add nuw nsw i64 %indvars.iv, 1
  %exitcond.not = icmp eq i64 %indvars.iv.next, %wide.trip.count
  br i1 %exitcond.not, label %._crit_edge, label %.lr.ph, !llvm.loop !500

._crit_edge53:                                    ; preds = %23, %.preheader
  %.4.lcssa = phi double [ 0.000000e+00, %.preheader ], [ %29, %23 ]
  %21 = fdiv double 1.000000e+00, %8
  %22 = tail call double @pow(double noundef %.4.lcssa, double noundef %21) #37, !tbaa !72
  br label %30

23:                                               ; preds = %.lr.ph52, %23
  %indvars.iv66 = phi i64 [ 0, %.lr.ph52 ], [ %indvars.iv.next67, %23 ]
  %.451 = phi double [ 0.000000e+00, %.lr.ph52 ], [ %29, %23 ]
  %24 = getelementptr inbounds nuw float, ptr %0, i64 %indvars.iv66
  %25 = load float, ptr %24, align 4, !tbaa !446
  %26 = tail call noundef float @llvm.fabs.f32(float %25)
  %27 = fpext float %26 to double
  %28 = tail call noundef double @pow(double noundef %27, double noundef %8) #37, !tbaa !72
  %29 = fadd double %.451, %28
  %indvars.iv.next67 = add nuw nsw i64 %indvars.iv66, 1
  %exitcond70.not = icmp eq i64 %indvars.iv.next67, %wide.trip.count69
  br i1 %exitcond70.not, label %._crit_edge53, label %23, !llvm.loop !501

30:                                               ; preds = %4, %._crit_edge53, %._crit_edge, %._crit_edge48
  %.037 = phi double [ %22, %._crit_edge53 ], [ %15, %._crit_edge ], [ %9, %._crit_edge48 ], [ 1.000000e+00, %4 ]
  %31 = fcmp ogt double %.037, 0.000000e+00
  %32 = fdiv double 1.000000e+00, %.037
  %33 = select i1 %31, double %32, double 0.000000e+00
  %34 = fptrunc double %33 to float
  %35 = icmp sgt i32 %2, 0
  br i1 %35, label %.lr.ph57.preheader, label %._crit_edge58

.lr.ph57.preheader:                               ; preds = %30
  %wide.trip.count74 = zext nneg i32 %2 to i64
  br label %.lr.ph57

._crit_edge58:                                    ; preds = %.lr.ph57, %30
  ret void

.lr.ph57:                                         ; preds = %.lr.ph57.preheader, %.lr.ph57
  %indvars.iv71 = phi i64 [ 0, %.lr.ph57.preheader ], [ %indvars.iv.next72, %.lr.ph57 ]
  %36 = getelementptr inbounds nuw float, ptr %0, i64 %indvars.iv71
  %37 = load float, ptr %36, align 4, !tbaa !446
  %38 = fmul float %37, %34
  %39 = getelementptr inbounds nuw float, ptr %1, i64 %indvars.iv71
  store float %38, ptr %39, align 4, !tbaa !446
  %indvars.iv.next72 = add nuw nsw i64 %indvars.iv71, 1
  %exitcond75.not = icmp eq i64 %indvars.iv.next72, %wide.trip.count74
  br i1 %exitcond75.not, label %._crit_edge58, label %.lr.ph57, !llvm.loop !502
}